; Function Attrs: mustprogress uwtable
define void @_ZN4pkpy15CodeEmitContext15emit_store_nameENS_9NameScopeENS_7StrNameEi(ptr noundef nonnull readonly align 8 captures(none) dereferenceable(232) %0, i32 noundef %1, i16 %2, i32 noundef %3) local_unnamed_addr #5 align 2 personality ptr @__gxx_personality_v0 {
  %5 = alloca %"class.std::__cxx11::basic_string", align 8
  %6 = alloca %"class.std::__cxx11::basic_string", align 8
  %7 = alloca %"class.std::__cxx11::basic_string", align 8
  %8 = alloca %"class.std::__cxx11::basic_string", align 8
  %9 = alloca %"class.std::allocator.59", align 1
  %10 = alloca %"class.std::__cxx11::basic_string", align 8
  switch i32 %1, label %19 [
    i32 0, label %11
    i32 1, label %15
    i32 2, label %17
  ]

11:                                               ; preds = %4
  %12 = tail call noundef i32 @_ZN4pkpy15CodeEmitContext11add_varnameENS_7StrNameE(ptr noundef nonnull align 8 dereferenceable(232) %0, i16 %2)
  %13 = trunc i32 %12 to i16
  %14 = tail call noundef i32 @_ZN4pkpy15CodeEmitContext5emit_ENS_6OpcodeEtib(ptr noundef nonnull align 8 dereferenceable(232) %0, i8 noundef zeroext 24, i16 noundef zeroext %13, i32 noundef %3, i1 noundef zeroext false)
  br label %41

15:                                               ; preds = %4
  %16 = tail call noundef i32 @_ZN4pkpy15CodeEmitContext5emit_ENS_6OpcodeEtib(ptr noundef nonnull align 8 dereferenceable(232) %0, i8 noundef zeroext 26, i16 noundef zeroext %2, i32 noundef %3, i1 noundef zeroext false)
  br label %41

17:                                               ; preds = %4
  %18 = tail call noundef i32 @_ZN4pkpy15CodeEmitContext5emit_ENS_6OpcodeEtib(ptr noundef nonnull align 8 dereferenceable(232) %0, i8 noundef zeroext 25, i16 noundef zeroext %2, i32 noundef %3, i1 noundef zeroext false)
  br label %41

19:                                               ; preds = %4
  %20 = tail call ptr @__cxa_allocate_exception(i64 16) #32
  call void @_ZNSaIcEC1Ev(ptr noundef nonnull align 1 dereferenceable(1) %9) #32
  invoke void @_ZNSt7__cxx1112basic_stringIcSt11char_traitsIcESaIcEEC2IS3_EEPKcRKS3_(ptr noundef nonnull align 8 dereferenceable(32) %8, ptr noundef nonnull @.str.2, ptr noundef nonnull align 1 dereferenceable(1) %9)
          to label %21 unwind label %.thread

21:                                               ; preds = %19
  %22 = invoke noundef nonnull align 8 dereferenceable(32) ptr @_ZNSt7__cxx1112basic_stringIcSt11char_traitsIcESaIcEE6insertEmPKc(ptr noundef nonnull align 8 dereferenceable(32) %8, i64 noundef 0, ptr noundef nonnull @.str)
          to label %23 unwind label %29

23:                                               ; preds = %21
  call void @_ZNSt7__cxx1112basic_stringIcSt11char_traitsIcESaIcEEC1EOS4_(ptr noundef nonnull align 8 dereferenceable(32) %7, ptr noundef nonnull align 8 dereferenceable(32) %22) #32
  call void @_ZNSt7__cxx119to_stringEi(ptr dead_on_unwind nonnull writable sret(%"class.std::__cxx11::basic_string") align 8 %10, i32 noundef 169) #32
  invoke void @_ZStplIcSt11char_traitsIcESaIcEENSt7__cxx1112basic_stringIT_T0_T1_EEOS8_S9_(ptr dead_on_unwind nonnull writable sret(%"class.std::__cxx11::basic_string") align 8 %6, ptr noundef nonnull align 8 dereferenceable(32) %7, ptr noundef nonnull align 8 dereferenceable(32) %10)
          to label %24 unwind label %31

24:                                               ; preds = %23
  %25 = invoke noundef nonnull align 8 dereferenceable(32) ptr @_ZNSt7__cxx1112basic_stringIcSt11char_traitsIcESaIcEE6appendEPKc(ptr noundef nonnull align 8 dereferenceable(32) %6, ptr noundef nonnull @.str.3)
          to label %26 unwind label %33

26:                                               ; preds = %24
  call void @_ZNSt7__cxx1112basic_stringIcSt11char_traitsIcESaIcEEC1EOS4_(ptr noundef nonnull align 8 dereferenceable(32) %5, ptr noundef nonnull align 8 dereferenceable(32) %25) #32
  invoke void @_ZNSt13runtime_errorC1ERKNSt7__cxx1112basic_stringIcSt11char_traitsIcESaIcEEE(ptr noundef nonnull align 8 dereferenceable(16) %20, ptr noundef nonnull align 8 dereferenceable(32) %5)
          to label %27 unwind label %35

27:                                               ; preds = %26
  invoke void @__cxa_throw(ptr nonnull %20, ptr nonnull @_ZTISt13runtime_error, ptr nonnull @_ZNSt13runtime_errorD1Ev) #29
          to label %43 unwind label %35

.thread:                                          ; preds = %19
  %28 = landingpad { ptr, i32 }
          cleanup
  call void @_ZNSaIcED1Ev(ptr noundef nonnull align 1 dereferenceable(1) %9) #32
  br label %40

29:                                               ; preds = %21
  %30 = landingpad { ptr, i32 }
          cleanup
  br label %39

31:                                               ; preds = %23
  %32 = landingpad { ptr, i32 }
          cleanup
  br label %38

33:                                               ; preds = %24
  %34 = landingpad { ptr, i32 }
          cleanup
  br label %37

35:                                               ; preds = %27, %26
  %.0 = phi i1 [ false, %27 ], [ true, %26 ]
  %36 = landingpad { ptr, i32 }
          cleanup
  call void @_ZNSt7__cxx1112basic_stringIcSt11char_traitsIcESaIcEED1Ev(ptr noundef nonnull align 8 dereferenceable(32) %5) #32
  br label %37

37:                                               ; preds = %35, %33
  %.pn = phi { ptr, i32 } [ %36, %35 ], [ %34, %33 ]
  %.4 = phi i1 [ %.0, %35 ], [ true, %33 ]
  call void @_ZNSt7__cxx1112basic_stringIcSt11char_traitsIcESaIcEED1Ev(ptr noundef nonnull align 8 dereferenceable(32) %6) #32
  br label %38

38:                                               ; preds = %37, %31
  %.pn.pn = phi { ptr, i32 } [ %.pn, %37 ], [ %32, %31 ]
  %.3 = phi i1 [ %.4, %37 ], [ true, %31 ]
  call void @_ZNSt7__cxx1112basic_stringIcSt11char_traitsIcESaIcEED1Ev(ptr noundef nonnull align 8 dereferenceable(32) %10) #32
  call void @_ZNSt7__cxx1112basic_stringIcSt11char_traitsIcESaIcEED1Ev(ptr noundef nonnull align 8 dereferenceable(32) %7) #32
  br label %39

39:                                               ; preds = %29, %38
  %.pn.pn.pn = phi { ptr, i32 } [ %.pn.pn, %38 ], [ %30, %29 ]
  %.2 = phi i1 [ %.3, %38 ], [ true, %29 ]
  call void @_ZNSt7__cxx1112basic_stringIcSt11char_traitsIcESaIcEED1Ev(ptr noundef nonnull align 8 dereferenceable(32) %8) #32
  call void @_ZNSaIcED1Ev(ptr noundef nonnull align 1 dereferenceable(1) %9) #32
  br i1 %.2, label %40, label %42

40:                                               ; preds = %.thread, %39
  %.pn.pn.pn.pn27 = phi { ptr, i32 } [ %28, %.thread ], [ %.pn.pn.pn, %39 ]
  call void @__cxa_free_exception(ptr %20) #32
  br label %42

41:                                               ; preds = %17, %15, %11
  ret void

42:                                               ; preds = %39, %40
  %.pn.pn.pn.pn26 = phi { ptr, i32 } [ %.pn.pn.pn, %39 ], [ %.pn.pn.pn.pn27, %40 ]
  resume { ptr, i32 } %.pn.pn.pn.pn26

43:                                               ; preds = %27
  unreachable
}